Certificate:
    Data:
        Version: 1 (0x0)
        Serial Number:
            41:79:2f:cb:14:54:30:37:85:e6:ba:40:58:80:f3:65:f7:20:cb:a9
        Signature Algorithm: sha256WithRSAEncryption
        Issuer: CN = PostgreSQL-CA
        Validity
            Not Before: Dec 26 07:12:41 2025 GMT
            Not After : Dec 24 07:12:41 2035 GMT
        Subject: CN = postgres
        Subject Public Key Info:
            Public Key Algorithm: rsaEncryption
                Public-Key: (2048 bit)
                Modulus:
                    00:a4:db:46:18:f9:64:e1:ff:9c:7a:c5:c4:eb:1c:
                    a7:cb:57:f3:e5:3d:55:17:e6:67:56:c8:91:f6:35:
                    ff:e6:61:90:05:95:94:0e:fc:f5:b8:24:c6:85:9c:
                    9b:b4:40:c9:b2:4a:d0:52:4e:e5:fd:93:a1:86:96:
                    a6:d1:bd:e5:68:f2:d8:7a:0a:33:91:11:8f:04:81:
                    c3:47:26:41:e8:04:74:e4:06:02:5c:95:33:21:5b:
                    75:d6:3c:a1:40:92:99:0d:34:06:8b:f5:46:f2:c5:
                    ce:30:47:32:82:5e:e4:2b:4a:93:96:12:29:cf:06:
                    56:f9:5d:45:5b:50:ca:7e:48:3f:84:ef:0e:b3:f9:
                    fa:8a:2b:08:9f:bc:55:08:d3:9b:8f:a0:c2:a2:b0:
                    7d:85:0c:4d:42:ba:b8:c1:63:d7:a0:b4:cd:c0:ea:
                    58:16:f2:15:91:15:e5:df:2d:08:ea:f4:43:76:32:
                    91:70:50:98:74:da:79:f3:a7:06:60:7b:d4:12:8d:
                    d2:11:17:4b:47:95:40:39:ee:70:e7:ed:bd:bd:9e:
                    07:34:15:02:bb:76:60:8e:ba:32:ab:d6:2b:64:ef:
                    76:62:6f:2f:42:3b:af:cb:d5:4d:36:90:5d:1e:4a:
                    52:10:22:81:d1:d5:08:dd:6a:d8:d5:38:e7:c5:b2:
                    d7:49
                Exponent: 65537 (0x10001)
    Signature Algorithm: sha256WithRSAEncryption
    Signature Value:
        8d:8f:de:2f:ca:d2:2c:58:8a:4b:ee:b7:c1:86:5c:96:d6:a3:
        01:0b:ac:d4:ae:88:e0:c5:78:4b:e3:3e:4a:b7:c5:cc:76:a5:
        6f:ee:6b:6a:9f:ee:52:72:04:1a:71:5a:3c:39:e9:04:ea:87:
        38:b7:61:1c:b8:23:96:54:9e:73:2e:10:85:38:05:4a:80:e6:
        04:77:b7:61:78:25:dc:40:d4:92:1b:45:f4:0d:0c:df:73:cf:
        56:0a:a5:c7:96:7d:f0:5e:93:97:6a:36:7b:a6:33:c9:57:8c:
        11:96:18:c2:0b:77:17:c5:fe:20:5d:2d:e7:e9:73:69:93:83:
        09:71:77:86:28:41:2c:ef:31:e1:5b:1e:b6:57:86:9e:19:09:
        56:2c:ef:a8:df:53:5b:be:87:9b:05:aa:4e:23:f0:c8:2c:00:
        27:c1:eb:76:87:96:c2:20:c9:18:28:96:f8:89:9c:5f:8c:58:
        62:6c:9a:ab:74:b0:3c:10:c0:6a:aa:fc:11:ed:a1:46:43:1c:
        d3:95:5d:8a:52:5c:b6:85:71:a2:06:fa:9b:87:b6:98:e3:c2:
        ea:1b:2d:e2:29:66:79:7c:37:68:64:98:d6:9f:86:23:2a:94:
        39:c9:7c:36:9a:6e:f2:e8:3e:72:e7:28:2b:44:c8:8f:6c:1c:
        80:70:1d:3b
-----BEGIN CERTIFICATE-----
MIICsjCCAZoCFEF5L8sUVDA3hea6QFiA82X3IMupMA0GCSqGSIb3DQEBCwUAMBgx
FjAUBgNVBAMMDVBvc3RncmVTUUwtQ0EwHhcNMjUxMjI2MDcxMjQxWhcNMzUxMjI0
MDcxMjQxWjATMREwDwYDVQQDDAhwb3N0Z3JlczCCASIwDQYJKoZIhvcNAQEBBQAD
ggEPADCCAQoCggEBAKTbRhj5ZOH/nHrFxOscp8tX8+U9VRfmZ1bIkfY1/+ZhkAWV
lA789bgkxoWcm7RAybJK0FJO5f2ToYaWptG95Wjy2HoKM5ERjwSBw0cmQegEdOQG
AlyVMyFbddY8oUCSmQ00Bov1RvLFzjBHMoJe5CtKk5YSKc8GVvldRVtQyn5IP4Tv
DrP5+oorCJ+8VQjTm4+gwqKwfYUMTUK6uMFj16C0zcDqWBbyFZEV5d8tCOr0Q3Yy
kXBQmHTaefOnBmB71BKN0hEXS0eVQDnucOftvb2eBzQVArt2YI66MqvWK2TvdmJv
L0I7r8vVTTaQXR5KUhAigdHVCN1q2NU458Wy10kCAwEAATANBgkqhkiG9w0BAQsF
AAOCAQEAjY/eL8rSLFiKS+63wYZcltajAQus1K6I4MV4S+M+SrfFzHalb+5rap/u
UnIEGnFaPDnpBOqHOLdhHLgjllSecy4QhTgFSoDmBHe3YXgl3EDUkhtF9A0M33PP
Vgqlx5Z98F6Tl2o2e6YzyVeMEZYYwgt3F8X+IF0t5+lzaZODCXF3hihBLO8x4Vse
tleGnhkJVizvqN9TW76HmwWqTiPwyCwAJ8HrdoeWwiDJGCiW+ImcX4xYYmyaq3Sw
PBDAaqr8Ee2hRkMc05VdilJctoVxogb6m4e2mOPC6hst4ilmeXw3aGSY1p+GIyqU
Ocl8Nppu8ug+cucoK0TIj2wcgHAdOw==
-----END CERTIFICATE-----
