Certificate Request:
    Data:
        Version: 1 (0x0)
        Subject: CN = postgres
        Subject Public Key Info:
            Public Key Algorithm: rsaEncryption
                Public-Key: (2048 bit)
                Modulus:
                    00:a4:db:46:18:f9:64:e1:ff:9c:7a:c5:c4:eb:1c:
                    a7:cb:57:f3:e5:3d:55:17:e6:67:56:c8:91:f6:35:
                    ff:e6:61:90:05:95:94:0e:fc:f5:b8:24:c6:85:9c:
                    9b:b4:40:c9:b2:4a:d0:52:4e:e5:fd:93:a1:86:96:
                    a6:d1:bd:e5:68:f2:d8:7a:0a:33:91:11:8f:04:81:
                    c3:47:26:41:e8:04:74:e4:06:02:5c:95:33:21:5b:
                    75:d6:3c:a1:40:92:99:0d:34:06:8b:f5:46:f2:c5:
                    ce:30:47:32:82:5e:e4:2b:4a:93:96:12:29:cf:06:
                    56:f9:5d:45:5b:50:ca:7e:48:3f:84:ef:0e:b3:f9:
                    fa:8a:2b:08:9f:bc:55:08:d3:9b:8f:a0:c2:a2:b0:
                    7d:85:0c:4d:42:ba:b8:c1:63:d7:a0:b4:cd:c0:ea:
                    58:16:f2:15:91:15:e5:df:2d:08:ea:f4:43:76:32:
                    91:70:50:98:74:da:79:f3:a7:06:60:7b:d4:12:8d:
                    d2:11:17:4b:47:95:40:39:ee:70:e7:ed:bd:bd:9e:
                    07:34:15:02:bb:76:60:8e:ba:32:ab:d6:2b:64:ef:
                    76:62:6f:2f:42:3b:af:cb:d5:4d:36:90:5d:1e:4a:
                    52:10:22:81:d1:d5:08:dd:6a:d8:d5:38:e7:c5:b2:
                    d7:49
                Exponent: 65537 (0x10001)
        Attributes:
            (none)
            Requested Extensions:
    Signature Algorithm: sha256WithRSAEncryption
    Signature Value:
        82:7a:61:a4:a9:14:09:79:d0:15:44:44:3e:cb:3e:9f:a1:c5:
        4b:22:bd:c7:1f:c7:bb:c0:ce:5b:ec:9c:9d:2b:69:2b:ff:d8:
        99:ae:36:4b:bb:04:65:4c:f4:e2:11:42:ab:24:54:fb:12:dd:
        a7:92:b8:94:c7:5f:6c:b2:3a:bf:02:2a:31:34:e8:e6:8b:ec:
        c4:e9:68:34:2e:14:99:d5:7d:4b:74:14:43:bb:78:3a:06:e1:
        43:fa:cd:07:4e:0a:ce:e5:68:38:2c:cc:f3:3b:53:7e:84:c8:
        85:53:ac:aa:25:ff:2d:06:e7:49:a5:cb:9d:32:17:9d:4e:67:
        34:23:1c:4d:6a:a0:70:0f:d1:c0:ae:38:87:1a:ce:6b:8c:ee:
        37:7c:b2:dc:2c:3e:f8:bb:5e:de:d8:27:ae:b6:8f:ab:03:a3:
        a6:15:bc:85:1e:6c:00:e5:f2:56:8e:57:48:4a:45:7c:83:6b:
        19:12:61:00:3f:5e:ce:4c:8e:17:5a:74:3d:5e:cb:59:4e:f4:
        49:64:99:fc:bb:1d:aa:2e:13:33:95:e3:67:16:05:4c:e8:e0:
        ae:04:c1:aa:54:15:b9:7f:cb:97:cb:33:bf:02:b9:a0:ca:40:
        cd:df:2e:a3:a7:f6:86:2d:88:33:61:7f:48:ba:0e:ac:99:9f:
        a5:13:b5:8c
-----BEGIN CERTIFICATE REQUEST-----
MIICWDCCAUACAQAwEzERMA8GA1UEAwwIcG9zdGdyZXMwggEiMA0GCSqGSIb3DQEB
AQUAA4IBDwAwggEKAoIBAQCk20YY+WTh/5x6xcTrHKfLV/PlPVUX5mdWyJH2Nf/m
YZAFlZQO/PW4JMaFnJu0QMmyStBSTuX9k6GGlqbRveVo8th6CjOREY8EgcNHJkHo
BHTkBgJclTMhW3XWPKFAkpkNNAaL9Ubyxc4wRzKCXuQrSpOWEinPBlb5XUVbUMp+
SD+E7w6z+fqKKwifvFUI05uPoMKisH2FDE1CurjBY9egtM3A6lgW8hWRFeXfLQjq
9EN2MpFwUJh02nnzpwZge9QSjdIRF0tHlUA57nDn7b29ngc0FQK7dmCOujKr1itk
73Ziby9CO6/L1U02kF0eSlIQIoHR1QjdatjVOOfFstdJAgMBAAGgADANBgkqhkiG
9w0BAQsFAAOCAQEAgnphpKkUCXnQFUREPss+n6HFSyK9xx/Hu8DOW+ycnStpK//Y
ma42S7sEZUz04hFCqyRU+xLdp5K4lMdfbLI6vwIqMTTo5ovsxOloNC4UmdV9S3QU
Q7t4OgbhQ/rNB04KzuVoOCzM8ztTfoTIhVOsqiX/LQbnSaXLnTIXnU5nNCMcTWqg
cA/RwK44hxrOa4zuN3yy3Cw++Lte3tgnrraPqwOjphW8hR5sAOXyVo5XSEpFfINr
GRJhAD9ezkyOF1p0PV7LWU70SWSZ/Lsdqi4TM5XjZxYFTOjgrgTBqlQVuX/Ll8sz
vwK5oMpAzd8uo6f2hi2IM2F/SLoOrJmfpRO1jA==
-----END CERTIFICATE REQUEST-----
